target datalayout = "e-m:e-p270:32:32-p271:32:32-p272:64:64-i64:64-i128:128-f80:128-n8:16:32:64-S128"
target triple = "x86_64-pc-linux-gnu"

%struct.PyVarObject = type { %struct._object, i64 }
%struct._object = type { %union.anon, ptr }
%union.anon = type { i64 }
%struct.anon = type { i32, i32 }
%struct.PyCodeLikeObject = type { %struct._object, ptr, i64, i32 }
%struct._typeobject = type { %struct.PyVarObject, ptr, i64, i64, ptr, i64, ptr, ptr, ptr, ptr, ptr, ptr, ptr, ptr, ptr, ptr, ptr, ptr, ptr, i64, ptr, ptr, ptr, ptr, i64, ptr, ptr, ptr, ptr, ptr, ptr, ptr, ptr, ptr, i64, ptr, ptr, ptr, ptr, ptr, ptr, ptr, ptr, ptr, ptr, ptr, i32, ptr, ptr, i8, i16 }
%struct._PyMonitoringState = type { i8, i8 }

@.str.29 = private unnamed_addr constant [17 x i8] c"PyErr_Occurred()\00", align 1
@.str.30 = private unnamed_addr constant [42 x i8] c"../cpython/Modules/_testcapi/monitoring.c\00", align 1
@.str.31 = private unnamed_addr constant [18 x i8] c"!PyErr_Occurred()\00", align 1
@PyExc_TypeError = external global ptr, align 8
@.str.32 = private unnamed_addr constant [29 x i8] c"expected a code-like, got %s\00", align 1
@.str.33 = private unnamed_addr constant [39 x i8] c"offset >= 0 && offset < cl->num_events\00", align 1
@__PRETTY_FUNCTION__.setup_fire = private unnamed_addr constant [59 x i8] c"PyMonitoringState *setup_fire(PyObject *, int, PyObject *)\00", align 1
@.str.35 = private unnamed_addr constant [4 x i8] c"OiO\00", align 1
@_Py_NoneStruct = external global %struct._object, align 8
@__PRETTY_FUNCTION__.fire_event_raise = private unnamed_addr constant [51 x i8] c"PyObject *fire_event_raise(PyObject *, PyObject *)\00", align 1

; Function Attrs: alwaysinline nounwind uwtable
define internal void @Py_INCREF(ptr noundef %0) #2 {
  %2 = alloca ptr, align 8
  %3 = alloca i32, align 4
  %4 = alloca i32, align 4
  store ptr %0, ptr %2, align 8, !tbaa !3
  call void @llvm.lifetime.start.p0(i64 4, ptr %3) #6
  %5 = load ptr, ptr %2, align 8, !tbaa !3
  %6 = getelementptr inbounds nuw %struct._object, ptr %5, i32 0, i32 0
  %7 = getelementptr inbounds nuw %struct.anon, ptr %6, i32 0, i32 0
  %8 = load i32, ptr %7, align 8, !tbaa !8
  store i32 %8, ptr %3, align 4, !tbaa !25
  %9 = load i32, ptr %3, align 4, !tbaa !25
  %10 = icmp slt i32 %9, 0
  br i1 %10, label %11, label %12

11:                                               ; preds = %1
  store i32 1, ptr %4, align 4
  br label %18

12:                                               ; preds = %1
  %13 = load i32, ptr %3, align 4, !tbaa !25
  %14 = add i32 %13, 1
  %15 = load ptr, ptr %2, align 8, !tbaa !3
  %16 = getelementptr inbounds nuw %struct._object, ptr %15, i32 0, i32 0
  %17 = getelementptr inbounds nuw %struct.anon, ptr %16, i32 0, i32 0
  store i32 %14, ptr %17, align 8, !tbaa !8
  store i32 0, ptr %4, align 4
  br label %18

18:                                               ; preds = %12, %11
  call void @llvm.lifetime.end.p0(i64 4, ptr %3) #6
  %19 = load i32, ptr %4, align 4
  switch i32 %19, label %21 [
    i32 0, label %20
    i32 1, label %20
  ]

20:                                               ; preds = %18, %18
  ret void

21:                                               ; preds = %18
  unreachable
}

; Function Attrs: inlinehint nounwind uwtable
define internal ptr @_Py_NewRef(ptr noundef %0) #3 {
  %2 = alloca ptr, align 8
  store ptr %0, ptr %2, align 8, !tbaa !3
  %3 = load ptr, ptr %2, align 8, !tbaa !3
  call void @Py_INCREF(ptr noundef %3)
  %4 = load ptr, ptr %2, align 8, !tbaa !3
  ret ptr %4
}

; Function Attrs: inlinehint nounwind uwtable
define internal ptr @_Py_TYPE(ptr noundef %0) #3 {
  %2 = alloca ptr, align 8
  store ptr %0, ptr %2, align 8, !tbaa !3
  %3 = load ptr, ptr %2, align 8, !tbaa !3
  %4 = getelementptr inbounds nuw %struct._object, ptr %3, i32 0, i32 1
  %5 = load ptr, ptr %4, align 8, !tbaa !35
  ret ptr %5
}

; Function Attrs: inlinehint nounwind uwtable
define internal i32 @Py_IS_TYPE(ptr noundef %0, ptr noundef %1) #3 {
  %3 = alloca ptr, align 8
  %4 = alloca ptr, align 8
  store ptr %0, ptr %3, align 8, !tbaa !3
  store ptr %1, ptr %4, align 8, !tbaa !31
  %5 = load ptr, ptr %3, align 8, !tbaa !3
  %6 = call ptr @_Py_TYPE(ptr noundef %5)
  %7 = load ptr, ptr %4, align 8, !tbaa !31
  %8 = icmp eq ptr %6, %7
  %9 = zext i1 %8 to i32
  ret i32 %9
}

; Function Attrs: inlinehint nounwind uwtable
define internal i32 @PyMonitoring_FireRaiseEvent(ptr noundef %0, ptr noundef %1, i32 noundef %2) #3 {
  %4 = alloca i32, align 4
  %5 = alloca ptr, align 8
  %6 = alloca ptr, align 8
  %7 = alloca i32, align 4
  store ptr %0, ptr %5, align 8, !tbaa !32
  store ptr %1, ptr %6, align 8, !tbaa !3
  store i32 %2, ptr %7, align 4, !tbaa !25
  %8 = load ptr, ptr %5, align 8, !tbaa !32
  %9 = getelementptr inbounds nuw %struct._PyMonitoringState, ptr %8, i32 0, i32 0
  %10 = load i8, ptr %9, align 1, !tbaa !27
  %11 = icmp ne i8 %10, 0
  br i1 %11, label %12, label %17

12:                                               ; preds = %3
  %13 = load ptr, ptr %5, align 8, !tbaa !32
  %14 = load ptr, ptr %6, align 8, !tbaa !3
  %15 = load i32, ptr %7, align 4, !tbaa !25
  %16 = call i32 @_PyMonitoring_FireRaiseEvent(ptr noundef %13, ptr noundef %14, i32 noundef %15)
  store i32 %16, ptr %4, align 4
  br label %18

17:                                               ; preds = %3
  store i32 0, ptr %4, align 4
  br label %18

18:                                               ; preds = %17, %12
  %19 = load i32, ptr %4, align 4
  ret i32 %19
}

; Function Attrs: nounwind uwtable
define internal ptr @setup_fire(ptr noundef %0, i32 noundef %1, ptr noundef %2) #0 {
  %4 = alloca ptr, align 8
  %5 = alloca ptr, align 8
  %6 = alloca i32, align 4
  %7 = alloca ptr, align 8
  %8 = alloca ptr, align 8
  %9 = alloca ptr, align 8
  store ptr %0, ptr %5, align 8, !tbaa !3
  store i32 %1, ptr %6, align 4, !tbaa !25
  store ptr %2, ptr %7, align 8, !tbaa !3
  %10 = load ptr, ptr %5, align 8, !tbaa !3
  %11 = call i32 @Py_IS_TYPE(ptr noundef %10, ptr noundef @PyCodeLike_Type)
  %12 = icmp ne i32 %11, 0
  br i1 %12, label %20, label %13

13:                                               ; preds = %3
  %14 = load ptr, ptr @PyExc_TypeError, align 8, !tbaa !3
  %15 = load ptr, ptr %5, align 8, !tbaa !3
  %16 = call ptr @_Py_TYPE(ptr noundef %15)
  %17 = getelementptr inbounds nuw %struct._typeobject, ptr %16, i32 0, i32 1
  %18 = load ptr, ptr %17, align 8, !tbaa !37
  %19 = call ptr (ptr, ptr, ...) @PyErr_Format(ptr noundef %14, ptr noundef @.str.32, ptr noundef %18)
  store ptr null, ptr %4, align 8
  br label %47

20:                                               ; preds = %3
  call void @llvm.lifetime.start.p0(i64 8, ptr %8) #6
  %21 = load ptr, ptr %5, align 8, !tbaa !3
  store ptr %21, ptr %8, align 8, !tbaa !9
  %22 = load i32, ptr %6, align 4, !tbaa !25
  %23 = icmp sge i32 %22, 0
  br i1 %23, label %24, label %31

24:                                               ; preds = %20
  %25 = load i32, ptr %6, align 4, !tbaa !25
  %26 = load ptr, ptr %8, align 8, !tbaa !9
  %27 = getelementptr inbounds nuw %struct.PyCodeLikeObject, ptr %26, i32 0, i32 3
  %28 = load i32, ptr %27, align 8, !tbaa !26
  %29 = icmp slt i32 %25, %28
  br i1 %29, label %30, label %31

30:                                               ; preds = %24
  br label %33

31:                                               ; preds = %24, %20
  call void @__assert_fail(ptr noundef @.str.33, ptr noundef @.str.30, i32 noundef 120, ptr noundef @__PRETTY_FUNCTION__.setup_fire) #7
  unreachable

32:                                               ; No predecessors!
  br label %33

33:                                               ; preds = %32, %30
  call void @llvm.lifetime.start.p0(i64 8, ptr %9) #6
  %34 = load ptr, ptr %8, align 8, !tbaa !9
  %35 = getelementptr inbounds nuw %struct.PyCodeLikeObject, ptr %34, i32 0, i32 1
  %36 = load ptr, ptr %35, align 8, !tbaa !10
  %37 = load i32, ptr %6, align 4, !tbaa !25
  %38 = sext i32 %37 to i64
  %39 = getelementptr %struct._PyMonitoringState, ptr %36, i64 %38
  store ptr %39, ptr %9, align 8, !tbaa !32
  %40 = load ptr, ptr %7, align 8, !tbaa !3
  %41 = icmp ne ptr %40, null
  br i1 %41, label %42, label %45

42:                                               ; preds = %33
  %43 = load ptr, ptr %7, align 8, !tbaa !3
  %44 = call ptr @_Py_NewRef(ptr noundef %43)
  call void @PyErr_SetRaisedException(ptr noundef %44)
  br label %45

45:                                               ; preds = %42, %33
  %46 = load ptr, ptr %9, align 8, !tbaa !32
  store ptr %46, ptr %4, align 8
  call void @llvm.lifetime.end.p0(i64 8, ptr %9) #6
  call void @llvm.lifetime.end.p0(i64 8, ptr %8) #6
  br label %47

47:                                               ; preds = %45, %13
  %48 = load ptr, ptr %4, align 8
  ret ptr %48
}

; Function Attrs: nounwind uwtable
define internal ptr @fire_event_raise(ptr noundef %0, ptr noundef %1) #0 {
  %3 = alloca ptr, align 8
  %4 = alloca ptr, align 8
  %5 = alloca ptr, align 8
  %6 = alloca ptr, align 8
  %7 = alloca i32, align 4
  %8 = alloca ptr, align 8
  %9 = alloca i32, align 4
  %10 = alloca ptr, align 8
  %11 = alloca i32, align 4
  %12 = alloca i32, align 4
  store ptr %0, ptr %4, align 8, !tbaa !3
  store ptr %1, ptr %5, align 8, !tbaa !3
  call void @llvm.lifetime.start.p0(i64 8, ptr %6) #6
  call void @llvm.lifetime.start.p0(i64 4, ptr %7) #6
  call void @llvm.lifetime.start.p0(i64 8, ptr %8) #6
  %13 = load ptr, ptr %5, align 8, !tbaa !3
  %14 = call i32 (ptr, ptr, ...) @PyArg_ParseTuple(ptr noundef %13, ptr noundef @.str.35, ptr noundef %6, ptr noundef %7, ptr noundef %8)
  %15 = icmp ne i32 %14, 0
  br i1 %15, label %17, label %16

16:                                               ; preds = %2
  store ptr null, ptr %3, align 8
  store i32 1, ptr %9, align 4
  br label %66

17:                                               ; preds = %2
  br label %18

18:                                               ; preds = %17
  %19 = load ptr, ptr %8, align 8, !tbaa !3
  %20 = icmp eq ptr %19, @_Py_NoneStruct
  br i1 %20, label %21, label %22

21:                                               ; preds = %18
  store ptr null, ptr %8, align 8, !tbaa !3
  br label %22

22:                                               ; preds = %21, %18
  br label %23

23:                                               ; preds = %22
  br label %24

24:                                               ; preds = %23
  call void @llvm.lifetime.start.p0(i64 8, ptr %10) #6
  %25 = load ptr, ptr %6, align 8, !tbaa !3
  %26 = load i32, ptr %7, align 4, !tbaa !25
  %27 = load ptr, ptr %8, align 8, !tbaa !3
  %28 = call ptr @setup_fire(ptr noundef %25, i32 noundef %26, ptr noundef %27)
  store ptr %28, ptr %10, align 8, !tbaa !32
  %29 = load ptr, ptr %10, align 8, !tbaa !32
  %30 = icmp eq ptr %29, null
  br i1 %30, label %31, label %32

31:                                               ; preds = %24
  store ptr null, ptr %3, align 8
  store i32 1, ptr %9, align 4
  br label %65

32:                                               ; preds = %24
  call void @llvm.lifetime.start.p0(i64 4, ptr %11) #6
  %33 = load ptr, ptr %10, align 8, !tbaa !32
  %34 = load ptr, ptr %6, align 8, !tbaa !3
  %35 = load i32, ptr %7, align 4, !tbaa !25
  %36 = call i32 @PyMonitoring_FireRaiseEvent(ptr noundef %33, ptr noundef %34, i32 noundef %35)
  store i32 %36, ptr %11, align 4, !tbaa !25
  br label %37

37:                                               ; preds = %32
  call void @llvm.lifetime.start.p0(i64 4, ptr %12) #6
  %38 = load i32, ptr %11, align 4, !tbaa !25
  %39 = load ptr, ptr %10, align 8, !tbaa !32
  %40 = load ptr, ptr %8, align 8, !tbaa !3
  %41 = call i32 @teardown_fire(i32 noundef %38, ptr noundef %39, ptr noundef %40)
  store i32 %41, ptr %12, align 4, !tbaa !25
  %42 = load i32, ptr %12, align 4, !tbaa !25
  %43 = icmp eq i32 %42, -1
  br i1 %43, label %44, label %51

44:                                               ; preds = %37
  %45 = call ptr @PyErr_Occurred()
  %46 = icmp ne ptr %45, null
  br i1 %46, label %47, label %48

47:                                               ; preds = %44
  br label %50

48:                                               ; preds = %44
  call void @__assert_fail(ptr noundef @.str.29, ptr noundef @.str.30, i32 noundef 357, ptr noundef @__PRETTY_FUNCTION__.fire_event_raise) #7
  unreachable

49:                                               ; No predecessors!
  br label %50

50:                                               ; preds = %49, %47
  store ptr null, ptr %3, align 8
  store i32 1, ptr %9, align 4
  br label %61

51:                                               ; preds = %37
  %52 = call ptr @PyErr_Occurred()
  %53 = icmp ne ptr %52, null
  br i1 %53, label %55, label %54

54:                                               ; preds = %51
  br label %57

55:                                               ; preds = %51
  call void @__assert_fail(ptr noundef @.str.31, ptr noundef @.str.30, i32 noundef 357, ptr noundef @__PRETTY_FUNCTION__.fire_event_raise) #7
  unreachable

56:                                               ; No predecessors!
  br label %57

57:                                               ; preds = %56, %54
  %58 = load i32, ptr %12, align 4, !tbaa !25
  %59 = sext i32 %58 to i64
  %60 = call ptr @PyLong_FromLong(i64 noundef %59)
  store ptr %60, ptr %3, align 8
  store i32 1, ptr %9, align 4
  br label %61

61:                                               ; preds = %57, %50
  call void @llvm.lifetime.end.p0(i64 4, ptr %12) #6
  br label %64

62:                                               ; No predecessors!
  br label %63

63:                                               ; preds = %62
  store i32 0, ptr %9, align 4
  br label %64

64:                                               ; preds = %63, %61
  call void @llvm.lifetime.end.p0(i64 4, ptr %11) #6
  br label %65

65:                                               ; preds = %64, %31
  call void @llvm.lifetime.end.p0(i64 8, ptr %10) #6
  br label %66

66:                                               ; preds = %65, %16
  call void @llvm.lifetime.end.p0(i64 8, ptr %8) #6
  call void @llvm.lifetime.end.p0(i64 4, ptr %7) #6
  call void @llvm.lifetime.end.p0(i64 8, ptr %6) #6
  %67 = load i32, ptr %9, align 4
  switch i32 %67, label %70 [
    i32 0, label %68
    i32 1, label %68
  ]

68:                                               ; preds = %66, %66
  %69 = load ptr, ptr %3, align 8
  ret ptr %69

70:                                               ; preds = %66
  unreachable
}